target datalayout = "e-m:e-p270:32:32-p271:32:32-p272:64:64-i64:64-i128:128-f80:128-n8:16:32:64-S128"
target triple = "x86_64-pc-linux-gnu"

%struct.timeval = type { i64, i64 }

; Function Attrs: nounwind uwtable
define hidden void @msec2timeval(i32 noundef %0, ptr noundef %1) #0 {
  %3 = alloca i32, align 4
  %4 = alloca ptr, align 8
  store i32 %0, ptr %3, align 4
  store ptr %1, ptr %4, align 8
  %5 = load i32, ptr %3, align 4
  %6 = udiv i32 %5, 1000
  %7 = zext i32 %6 to i64
  %8 = load ptr, ptr %4, align 8
  %9 = getelementptr inbounds %struct.timeval, ptr %8, i32 0, i32 0
  store i64 %7, ptr %9, align 8
  %10 = load i32, ptr %3, align 4
  %11 = urem i32 %10, 1000
  %12 = mul i32 %11, 1000
  %13 = zext i32 %12 to i64
  %14 = load ptr, ptr %4, align 8
  %15 = getelementptr inbounds %struct.timeval, ptr %14, i32 0, i32 1
  store i64 %13, ptr %15, align 8
  ret void
}