; Function Attrs: mustprogress nofree norecurse nosync nounwind willreturn memory(argmem: write) uwtable
define hidden void @msec2timeval(i32 noundef %0, ptr nocapture noundef writeonly %1) local_unnamed_addr #9 {
  %3 = udiv i32 %0, 1000
  %4 = zext nneg i32 %3 to i64
  store i64 %4, ptr %1, align 8
  %5 = urem i32 %0, 1000
  %6 = mul nuw nsw i32 %5, 1000
  %7 = zext nneg i32 %6 to i64
  %8 = getelementptr inbounds i8, ptr %1, i64 8
  store i64 %7, ptr %8, align 8
  ret void
}